; Function Attrs: mustprogress uwtable
define internal fastcc noundef zeroext i1 @_ZN12_GLOBAL__N_17matchedEPKN6icu_758numparse4impl19AffixPatternMatcherERKNS0_13UnicodeStringE(ptr noundef readonly %affix, ptr noundef nonnull align 8 dereferenceable(64) %patternString) unnamed_addr #1 personality ptr @__gxx_personality_v0 {
entry:
  %agg.tmp.i.i = alloca %"class.icu_75::ConstChar16Ptr", align 8
  %ref.tmp = alloca %"class.icu_75::UnicodeString", align 8
  %cond = icmp eq ptr %affix, null
  br i1 %cond, label %land.lhs.true, label %land.rhs

land.lhs.true:                                    ; preds = %entry
  %fUnion.i = getelementptr inbounds i8, ptr %patternString, i64 8
  %0 = load i16, ptr %fUnion.i, align 8
  %conv2.i6 = and i16 %0, 1
  %tobool.not = icmp ne i16 %conv2.i6, 0
  br label %cleanup.done

land.rhs:                                         ; preds = %entry
  %fPattern.i = getelementptr inbounds i8, ptr %affix, i64 56
  call void @llvm.lifetime.start.p0(i64 8, ptr nonnull %agg.tmp.i.i), !noalias !83
  %1 = load ptr, ptr %fPattern.i, align 8, !noalias !86
  store ptr %1, ptr %agg.tmp.i.i, align 8, !noalias !86
  invoke void @_ZN6icu_7513UnicodeStringC1EaNS_14ConstChar16PtrEi(ptr noundef nonnull align 8 dereferenceable(64) %ref.tmp, i8 noundef signext 1, ptr noundef nonnull %agg.tmp.i.i, i32 noundef -1)
          to label %_ZNK6icu_758numparse4impl19AffixPatternMatcher10getPatternEv.exit unwind label %lpad.i.i

common.resume:                                    ; preds = %lpad, %lpad.i.i
  %common.resume.op = phi { ptr, i32 } [ %2, %lpad.i.i ], [ %13, %lpad ]
  resume { ptr, i32 } %common.resume.op

lpad.i.i:                                         ; preds = %land.rhs
  %2 = landingpad { ptr, i32 }
          cleanup
  %3 = load ptr, ptr %agg.tmp.i.i, align 8, !noalias !86
  call void asm sideeffect "", "rm,~{memory},~{dirflag},~{fpsr},~{flags}"(ptr %3) #16, !srcloc !12
  br label %common.resume

_ZNK6icu_758numparse4impl19AffixPatternMatcher10getPatternEv.exit: ; preds = %land.rhs
  %4 = load ptr, ptr %agg.tmp.i.i, align 8, !noalias !86
  call void asm sideeffect "", "rm,~{memory},~{dirflag},~{fpsr},~{flags}"(ptr %4) #16, !srcloc !12
  call void @llvm.lifetime.end.p0(i64 8, ptr nonnull %agg.tmp.i.i), !noalias !83
  %fUnion.i.i = getelementptr inbounds i8, ptr %ref.tmp, i64 8
  %5 = load i16, ptr %fUnion.i.i, align 8
  %conv2.i14.i = and i16 %5, 1
  %tobool.not.i = icmp eq i16 %conv2.i14.i, 0
  br i1 %tobool.not.i, label %if.else.i, label %if.then.i

if.then.i:                                        ; preds = %_ZNK6icu_758numparse4impl19AffixPatternMatcher10getPatternEv.exit
  %fUnion.i5.i = getelementptr inbounds i8, ptr %patternString, i64 8
  %6 = load i16, ptr %fUnion.i5.i, align 8
  %conv2.i615.i = and i16 %6, 1
  %tobool3.i = icmp ne i16 %conv2.i615.i, 0
  br label %cleanup.action

if.else.i:                                        ; preds = %_ZNK6icu_758numparse4impl19AffixPatternMatcher10getPatternEv.exit
  %cmp.i.i.i = icmp slt i16 %5, 0
  %7 = ashr i16 %5, 5
  %shr.i.i.i = sext i16 %7 to i32
  %fLength.i.i = getelementptr inbounds i8, ptr %ref.tmp, i64 12
  %8 = load i32, ptr %fLength.i.i, align 4
  %cond.i.i = select i1 %cmp.i.i.i, i32 %8, i32 %shr.i.i.i
  %fUnion.i.i7.i = getelementptr inbounds i8, ptr %patternString, i64 8
  %9 = load i16, ptr %fUnion.i.i7.i, align 8
  %cmp.i.i8.i = icmp slt i16 %9, 0
  %10 = ashr i16 %9, 5
  %shr.i.i9.i = sext i16 %10 to i32
  %fLength.i10.i = getelementptr inbounds i8, ptr %patternString, i64 12
  %11 = load i32, ptr %fLength.i10.i, align 4
  %cond.i11.i = select i1 %cmp.i.i8.i, i32 %11, i32 %shr.i.i9.i
  %conv2.i1316.i = and i16 %9, 1
  %tobool7.not.i = icmp eq i16 %conv2.i1316.i, 0
  %cmp.i = icmp eq i32 %cond.i.i, %cond.i11.i
  %or.cond.i = and i1 %tobool7.not.i, %cmp.i
  br i1 %or.cond.i, label %land.rhs.i, label %cleanup.action

land.rhs.i:                                       ; preds = %if.else.i
  %call8.i4 = invoke noundef signext i8 @_ZNK6icu_7513UnicodeString8doEqualsERKS0_i(ptr noundef nonnull align 8 dereferenceable(64) %ref.tmp, ptr noundef nonnull align 8 dereferenceable(64) %patternString, i32 noundef %cond.i.i)
          to label %call8.i.noexc unwind label %lpad

call8.i.noexc:                                    ; preds = %land.rhs.i
  %tobool9.i = icmp ne i8 %call8.i4, 0
  br label %cleanup.action

cleanup.action:                                   ; preds = %if.then.i, %if.else.i, %call8.i.noexc
  %.ph = phi i1 [ %tobool9.i, %call8.i.noexc ], [ false, %if.else.i ], [ %tobool3.i, %if.then.i ]
  call void @_ZN6icu_7513UnicodeStringD1Ev(ptr noundef nonnull align 8 dereferenceable(64) %ref.tmp) #16
  br label %cleanup.done

cleanup.done:                                     ; preds = %land.lhs.true, %cleanup.action
  %12 = phi i1 [ %.ph, %cleanup.action ], [ %tobool.not, %land.lhs.true ]
  ret i1 %12

lpad:                                             ; preds = %land.rhs.i
  %13 = landingpad { ptr, i32 }
          cleanup
  call void @_ZN6icu_7513UnicodeStringD1Ev(ptr noundef nonnull align 8 dereferenceable(64) %ref.tmp) #16
  br label %common.resume
}